target datalayout = "e-m:e-p270:32:32-p271:32:32-p272:64:64-i64:64-i128:128-f80:128-n8:16:32:64-S128"
target triple = "x86_64-pc-linux-gnu"

; Function Attrs: mustprogress nounwind uwtable
define noundef i32 @_ZN10duckdb_hll9sdsll2strEPcx(ptr noundef %0, i64 noundef %1) #9 {
  %3 = alloca ptr, align 8
  %4 = alloca i64, align 8
  %5 = alloca ptr, align 8
  %6 = alloca i8, align 1
  %7 = alloca i64, align 8
  %8 = alloca i64, align 8
  store ptr %0, ptr %3, align 8, !tbaa !12
  store i64 %1, ptr %4, align 8, !tbaa !35
  call void @llvm.lifetime.start.p0(i64 8, ptr %5) #11
  call void @llvm.lifetime.start.p0(i64 1, ptr %6) #11
  call void @llvm.lifetime.start.p0(i64 8, ptr %7) #11
  call void @llvm.lifetime.start.p0(i64 8, ptr %8) #11
  %9 = load i64, ptr %4, align 8, !tbaa !35
  %10 = icmp slt i64 %9, 0
  br i1 %10, label %11, label %14

11:                                               ; preds = %2
  %12 = load i64, ptr %4, align 8, !tbaa !35
  %13 = sub nsw i64 0, %12
  br label %16

14:                                               ; preds = %2
  %15 = load i64, ptr %4, align 8, !tbaa !35
  br label %16

16:                                               ; preds = %14, %11
  %17 = phi i64 [ %13, %11 ], [ %15, %14 ]
  store i64 %17, ptr %7, align 8, !tbaa !35
  %18 = load ptr, ptr %3, align 8, !tbaa !12
  store ptr %18, ptr %5, align 8, !tbaa !12
  br label %19

19:                                               ; preds = %28, %16
  %20 = load i64, ptr %7, align 8, !tbaa !35
  %21 = urem i64 %20, 10
  %22 = add i64 48, %21
  %23 = trunc i64 %22 to i8
  %24 = load ptr, ptr %5, align 8, !tbaa !12
  %25 = getelementptr inbounds nuw i8, ptr %24, i32 1
  store ptr %25, ptr %5, align 8, !tbaa !12
  store i8 %23, ptr %24, align 1, !tbaa !9
  %26 = load i64, ptr %7, align 8, !tbaa !35
  %27 = udiv i64 %26, 10
  store i64 %27, ptr %7, align 8, !tbaa !35
  br label %28

28:                                               ; preds = %19
  %29 = load i64, ptr %7, align 8, !tbaa !35
  %30 = icmp ne i64 %29, 0
  br i1 %30, label %19, label %31, !llvm.loop !37

31:                                               ; preds = %28
  %32 = load i64, ptr %4, align 8, !tbaa !35
  %33 = icmp slt i64 %32, 0
  br i1 %33, label %34, label %37

34:                                               ; preds = %31
  %35 = load ptr, ptr %5, align 8, !tbaa !12
  %36 = getelementptr inbounds nuw i8, ptr %35, i32 1
  store ptr %36, ptr %5, align 8, !tbaa !12
  store i8 45, ptr %35, align 1, !tbaa !9
  br label %37

37:                                               ; preds = %34, %31
  %38 = load ptr, ptr %5, align 8, !tbaa !12
  %39 = load ptr, ptr %3, align 8, !tbaa !12
  %40 = ptrtoint ptr %38 to i64
  %41 = ptrtoint ptr %39 to i64
  %42 = sub i64 %40, %41
  store i64 %42, ptr %8, align 8, !tbaa !7
  %43 = load ptr, ptr %5, align 8, !tbaa !12
  store i8 0, ptr %43, align 1, !tbaa !9
  %44 = load ptr, ptr %5, align 8, !tbaa !12
  %45 = getelementptr inbounds i8, ptr %44, i32 -1
  store ptr %45, ptr %5, align 8, !tbaa !12
  br label %46

46:                                               ; preds = %50, %37
  %47 = load ptr, ptr %3, align 8, !tbaa !12
  %48 = load ptr, ptr %5, align 8, !tbaa !12
  %49 = icmp ult ptr %47, %48
  br i1 %49, label %50, label %62

50:                                               ; preds = %46
  %51 = load ptr, ptr %3, align 8, !tbaa !12
  %52 = load i8, ptr %51, align 1, !tbaa !9
  store i8 %52, ptr %6, align 1, !tbaa !9
  %53 = load ptr, ptr %5, align 8, !tbaa !12
  %54 = load i8, ptr %53, align 1, !tbaa !9
  %55 = load ptr, ptr %3, align 8, !tbaa !12
  store i8 %54, ptr %55, align 1, !tbaa !9
  %56 = load i8, ptr %6, align 1, !tbaa !9
  %57 = load ptr, ptr %5, align 8, !tbaa !12
  store i8 %56, ptr %57, align 1, !tbaa !9
  %58 = load ptr, ptr %3, align 8, !tbaa !12
  %59 = getelementptr inbounds nuw i8, ptr %58, i32 1
  store ptr %59, ptr %3, align 8, !tbaa !12
  %60 = load ptr, ptr %5, align 8, !tbaa !12
  %61 = getelementptr inbounds i8, ptr %60, i32 -1
  store ptr %61, ptr %5, align 8, !tbaa !12
  br label %46, !llvm.loop !39

62:                                               ; preds = %46
  %63 = load i64, ptr %8, align 8, !tbaa !7
  %64 = trunc i64 %63 to i32
  call void @llvm.lifetime.end.p0(i64 8, ptr %8) #11
  call void @llvm.lifetime.end.p0(i64 8, ptr %7) #11
  call void @llvm.lifetime.end.p0(i64 1, ptr %6) #11
  call void @llvm.lifetime.end.p0(i64 8, ptr %5) #11
  ret i32 %64
}