; Function Attrs: mustprogress nofree norecurse nosync nounwind memory(argmem: readwrite) uwtable
define noundef i32 @_ZN10duckdb_hll9sdsll2strEPcx(ptr noundef %0, i64 noundef %1) local_unnamed_addr #14 {
  %3 = tail call i64 @llvm.abs.i64(i64 %1, i1 true)
  br label %4

4:                                                ; preds = %4, %2
  %.024 = phi ptr [ %0, %2 ], [ %8, %4 ]
  %.023 = phi i64 [ %3, %2 ], [ %9, %4 ]
  %5 = urem i64 %.023, 10
  %6 = trunc nuw nsw i64 %5 to i8
  %7 = or disjoint i8 %6, 48
  %8 = getelementptr inbounds nuw i8, ptr %.024, i64 1
  store i8 %7, ptr %.024, align 1, !tbaa !20
  %9 = udiv i64 %.023, 10
  %.not = icmp samesign ult i64 %.023, 10
  br i1 %.not, label %10, label %4, !llvm.loop !21

10:                                               ; preds = %4
  %11 = icmp slt i64 %1, 0
  br i1 %11, label %12, label %14

12:                                               ; preds = %10
  %13 = getelementptr inbounds nuw i8, ptr %.024, i64 2
  store i8 45, ptr %8, align 1, !tbaa !20
  br label %14

14:                                               ; preds = %12, %10
  %.1 = phi ptr [ %13, %12 ], [ %8, %10 ]
  store i8 0, ptr %.1, align 1, !tbaa !20
  %.225 = getelementptr inbounds i8, ptr %.1, i64 -1
  %15 = icmp ult ptr %0, %.225
  br i1 %15, label %.lr.ph, label %._crit_edge

.lr.ph:                                           ; preds = %14, %.lr.ph
  %.227 = phi ptr [ %.2, %.lr.ph ], [ %.225, %14 ]
  %.026 = phi ptr [ %18, %.lr.ph ], [ %0, %14 ]
  %16 = load i8, ptr %.026, align 1, !tbaa !20
  %17 = load i8, ptr %.227, align 1, !tbaa !20
  store i8 %17, ptr %.026, align 1, !tbaa !20
  store i8 %16, ptr %.227, align 1, !tbaa !20
  %18 = getelementptr inbounds nuw i8, ptr %.026, i64 1
  %.2 = getelementptr inbounds i8, ptr %.227, i64 -1
  %19 = icmp ult ptr %18, %.2
  br i1 %19, label %.lr.ph, label %._crit_edge, !llvm.loop !23

._crit_edge:                                      ; preds = %.lr.ph, %14
  %20 = ptrtoint ptr %.1 to i64
  %21 = ptrtoint ptr %0 to i64
  %22 = sub i64 %20, %21
  %23 = trunc i64 %22 to i32
  ret i32 %23
}